Certificate:
    Data:
        Version: 3 (0x2)
        Serial Number: 24 (0x18)
    Signature Algorithm: sha1WithRSAEncryption
        Issuer: C=US, ST=California, L=San Francisco, O=Casual Collective Inc. dba Kixeye, CN=Kixeye Root CA/emailAddress=sysadmin@kixeye.com
        Validity
            Not Before: Jun 16 22:47:30 2014 GMT
            Not After : Jun 13 22:47:30 2024 GMT
        Subject: C=US, ST=California, O=Casual Collective Inc. dba Kixeye, CN=client.openvpn.vc.kixeye.com/emailAddress=sysadmin@kixeye.com
        Subject Public Key Info:
            Public Key Algorithm: rsaEncryption
                Public-Key: (2048 bit)
                Modulus:
                    00:ca:28:25:7d:bb:a1:1c:97:bc:10:c3:09:7d:ff:
                    00:4a:37:a0:8a:74:87:5c:7e:a4:1d:6a:35:cc:7c:
                    18:7a:39:85:0c:a9:6b:06:46:b3:67:52:b5:4f:ba:
                    66:b4:53:69:cf:bc:1e:80:d6:50:99:42:34:3d:47:
                    9e:31:48:c3:25:19:d4:6f:91:02:5e:78:e1:04:f9:
                    79:0a:07:a9:62:6a:0c:1e:24:55:0e:68:62:13:f5:
                    2d:74:29:ff:05:3b:f4:f6:89:40:c2:51:9c:6b:f5:
                    c0:1f:96:e3:bd:f1:c6:9d:2a:a2:af:ae:3c:9a:d8:
                    95:92:ce:93:31:a4:56:1d:a3:d3:16:db:28:44:6b:
                    b5:c0:47:c6:45:fe:a1:61:25:d9:30:40:65:c9:e3:
                    38:93:9e:37:c6:e9:55:65:d5:f1:21:0b:63:4f:87:
                    70:ba:f1:89:dd:7c:6d:9c:17:cf:40:e5:fb:70:6e:
                    0a:59:3e:92:0b:5c:ec:b3:10:24:2a:2e:44:6d:41:
                    07:99:91:5c:99:45:57:6a:f1:a3:75:42:8e:bc:b0:
                    8d:22:0d:ef:4d:c6:62:ef:13:7c:23:3b:7a:32:8a:
                    5f:34:6b:86:cf:c5:a4:b8:1f:cd:97:96:c3:dd:61:
                    8a:90:9a:61:81:7c:d7:8c:d4:9d:ba:d1:15:57:b5:
                    cf:53
                Exponent: 65537 (0x10001)
        X509v3 extensions:
            X509v3 Basic Constraints: 
                CA:FALSE
            X509v3 Subject Key Identifier: 
                41:48:20:BB:AD:CC:E2:CF:31:68:33:05:03:F6:DF:E3:C9:11:FA:61
            X509v3 Authority Key Identifier: 
                keyid:90:8D:C4:24:F4:9C:72:B0:8C:86:9B:85:A5:A5:55:5B:93:09:14:6E
                DirName:/C=US/ST=California/L=San Francisco/O=Casual Collective Inc. dba Kixeye/CN=Kixeye Root CA/emailAddress=sysadmin@kixeye.com
                serial:DE:83:5C:63:EA:15:E9:F7

            Netscape CA Revocation Url: 
                https://kixeye.com/ssl/revoke.pem
    Signature Algorithm: sha1WithRSAEncryption
         4f:2c:80:7d:1a:94:63:2c:05:76:b8:35:64:f6:18:de:d2:d7:
         01:bf:2c:85:16:99:be:3b:e3:68:5e:7c:15:77:74:c6:15:cd:
         d6:3a:03:ba:be:2f:e0:bf:6d:c6:64:fb:2a:6e:b1:a0:37:38:
         42:67:17:2e:5c:29:b1:5d:03:1a:18:b9:6e:30:7a:aa:d3:63:
         f6:0f:96:fd:d5:e9:4e:c4:c9:9e:65:7c:7a:ee:a9:48:a9:eb:
         27:90:a9:70:00:b7:f2:b1:37:3e:43:9b:fd:f8:79:5c:c0:ea:
         e9:89:f2:6d:26:41:27:34:53:b6:76:e6:76:8a:dd:10:f7:35:
         0e:03:d9:08:c5:52:8c:0d:a7:f9:ea:09:fa:97:ef:7c:76:15:
         1f:ba:17:18:ee:6d:04:b8:cb:9b:ac:1a:bc:c3:89:2f:cc:86:
         7b:6f:d7:a1:cc:db:23:ae:0d:b9:b4:e0:bf:36:8a:8d:80:f7:
         d7:24:07:f4:d7:d3:64:84:3e:7a:c6:ab:05:a5:bc:91:8f:2d:
         6c:6c:0a:1f:07:8b:9e:10:4f:7b:5b:a8:fb:59:91:a7:1a:79:
         2a:69:7c:e8:86:b4:b1:56:28:e4:a1:53:d6:4c:3b:d9:b0:77:
         25:7b:02:a1:f3:73:19:31:81:33:98:7c:87:32:79:c8:02:06:
         e1:87:84:4f
-----BEGIN CERTIFICATE-----
MIIE9jCCA96gAwIBAgIBGDANBgkqhkiG9w0BAQUFADCBozELMAkGA1UEBhMCVVMx
EzARBgNVBAgMCkNhbGlmb3JuaWExFjAUBgNVBAcMDVNhbiBGcmFuY2lzY28xKjAo
BgNVBAoMIUNhc3VhbCBDb2xsZWN0aXZlIEluYy4gZGJhIEtpeGV5ZTEXMBUGA1UE
AwwOS2l4ZXllIFJvb3QgQ0ExIjAgBgkqhkiG9w0BCQEWE3N5c2FkbWluQGtpeGV5
ZS5jb20wHhcNMTQwNjE2MjI0NzMwWhcNMjQwNjEzMjI0NzMwWjCBmTELMAkGA1UE
BhMCVVMxEzARBgNVBAgMCkNhbGlmb3JuaWExKjAoBgNVBAoMIUNhc3VhbCBDb2xs
ZWN0aXZlIEluYy4gZGJhIEtpeGV5ZTElMCMGA1UEAwwcY2xpZW50Lm9wZW52cG4u
dmMua2l4ZXllLmNvbTEiMCAGCSqGSIb3DQEJARYTc3lzYWRtaW5Aa2l4ZXllLmNv
bTCCASIwDQYJKoZIhvcNAQEBBQADggEPADCCAQoCggEBAMooJX27oRyXvBDDCX3/
AEo3oIp0h1x+pB1qNcx8GHo5hQypawZGs2dStU+6ZrRTac+8HoDWUJlCND1HnjFI
wyUZ1G+RAl544QT5eQoHqWJqDB4kVQ5oYhP1LXQp/wU79PaJQMJRnGv1wB+W473x
xp0qoq+uPJrYlZLOkzGkVh2j0xbbKERrtcBHxkX+oWEl2TBAZcnjOJOeN8bpVWXV
8SELY0+HcLrxid18bZwXz0Dl+3BuClk+kgtc7LMQJCouRG1BB5mRXJlFV2rxo3VC
jrywjSIN703GYu8TfCM7ejKKXzRrhs/FpLgfzZeWw91hipCaYYF814zUnbrRFVe1
z1MCAwEAAaOCATswggE3MAkGA1UdEwQCMAAwHQYDVR0OBBYEFEFIILutzOLPMWgz
BQP23+PJEfphMIHYBgNVHSMEgdAwgc2AFJCNxCT0nHKwjIabhaWlVVuTCRRuoYGp
pIGmMIGjMQswCQYDVQQGEwJVUzETMBEGA1UECAwKQ2FsaWZvcm5pYTEWMBQGA1UE
BwwNU2FuIEZyYW5jaXNjbzEqMCgGA1UECgwhQ2FzdWFsIENvbGxlY3RpdmUgSW5j
LiBkYmEgS2l4ZXllMRcwFQYDVQQDDA5LaXhleWUgUm9vdCBDQTEiMCAGCSqGSIb3
DQEJARYTc3lzYWRtaW5Aa2l4ZXllLmNvbYIJAN6DXGPqFen3MDAGCWCGSAGG+EIB
BAQjFiFodHRwczovL2tpeGV5ZS5jb20vc3NsL3Jldm9rZS5wZW0wDQYJKoZIhvcN
AQEFBQADggEBAE8sgH0alGMsBXa4NWT2GN7S1wG/LIUWmb4742hefBV3dMYVzdY6
A7q+L+C/bcZk+ypusaA3OEJnFy5cKbFdAxoYuW4weqrTY/YPlv3V6U7EyZ5lfHru
qUip6yeQqXAAt/KxNz5Dm/34eVzA6umJ8m0mQSc0U7Z25naK3RD3NQ4D2QjFUowN
p/nqCfqX73x2FR+6FxjubQS4y5usGrzDiS/Mhntv16HM2yOuDbm04L82io2A99ck
B/TX02SEPnrGqwWlvJGPLWxsCh8Hi54QT3tbqPtZkacaeSppfOiGtLFWKOShU9ZM
O9mwdyV7AqHzcxkxgTOYfIcyecgCBuGHhE8=
-----END CERTIFICATE-----
