Certificate:
    Data:
        Version: 3 (0x2)
        Serial Number: 10 (0xa)
    Signature Algorithm: sha1WithRSAEncryption
        Issuer: C=US, ST=California, L=San Francisco, O=Casual Collective Inc. dba Kixeye, CN=Kixeye Root CA/emailAddress=sysadmin@kixeye.com
        Validity
            Not Before: Jan 18 22:12:17 2013 GMT
            Not After : Jan 16 22:12:17 2023 GMT
        Subject: C=US, ST=California, O=Casual Collective Inc. dba Kixeye, CN=*.stage.i.kixeye.com
        Subject Public Key Info:
            Public Key Algorithm: rsaEncryption
                Public-Key: (2048 bit)
                Modulus:
                    00:ba:7a:3b:e0:b0:06:22:ad:26:93:88:b9:eb:ef:
                    39:bc:51:ac:4d:64:23:90:a6:7b:22:e5:b2:19:40:
                    6e:a2:fd:d6:7a:93:fd:95:e5:e2:d6:d7:a5:1d:f1:
                    4c:d8:ea:97:d4:38:b8:ca:86:ca:e9:89:60:90:12:
                    e3:1b:71:31:2c:71:dd:b3:b3:16:90:23:b4:dd:06:
                    9c:44:99:34:d1:a3:0a:9b:71:ba:a5:c6:83:92:fc:
                    e2:53:47:c3:16:26:a0:24:20:9a:dc:40:1c:b5:ee:
                    11:ed:00:f5:aa:99:75:42:25:4b:a0:c9:3c:56:08:
                    a0:8d:7a:e7:d0:ed:3f:4b:a2:c2:61:62:28:37:39:
                    5f:08:2e:d2:37:c2:10:72:28:ee:99:e7:6e:8c:50:
                    23:9c:f9:d8:1d:da:d7:37:67:9c:fe:b3:04:10:55:
                    c4:b3:43:41:3d:41:c4:3c:d0:4c:b2:92:48:bd:87:
                    58:55:a2:38:a0:83:8f:ef:f2:fc:55:23:76:7e:75:
                    a6:49:81:56:b1:a7:3a:51:e5:a4:68:4d:48:65:c5:
                    ec:6c:cb:9a:d0:3b:e5:57:70:4d:b0:c3:44:1d:4e:
                    74:bb:0c:74:0f:27:7c:e8:0d:85:9c:e5:cc:08:87:
                    e2:c0:be:cb:b5:5a:a4:f4:ad:f4:3c:8b:95:de:b8:
                    4c:4f
                Exponent: 65537 (0x10001)
        X509v3 extensions:
            X509v3 Basic Constraints: 
                CA:FALSE
            X509v3 Subject Key Identifier: 
                38:B1:3F:DF:63:D7:3A:54:94:20:E5:D1:20:F7:82:23:14:F0:5E:AD
            X509v3 Authority Key Identifier: 
                keyid:90:8D:C4:24:F4:9C:72:B0:8C:86:9B:85:A5:A5:55:5B:93:09:14:6E
                DirName:/C=US/ST=California/L=San Francisco/O=Casual Collective Inc. dba Kixeye/CN=Kixeye Root CA/emailAddress=sysadmin@kixeye.com
                serial:DE:83:5C:63:EA:15:E9:F7

            Netscape CA Revocation Url: 
                https://kixeye.com/ssl/revoke.pem
    Signature Algorithm: sha1WithRSAEncryption
         8a:22:88:87:69:71:d0:25:28:c6:29:32:0f:e8:31:8f:3d:94:
         93:98:17:25:82:05:0c:57:6f:3c:e4:10:6a:9a:40:6e:eb:60:
         be:c0:f3:26:2a:6f:d8:93:b9:d3:4b:a9:07:01:a4:c1:d0:be:
         88:73:bb:58:06:1e:7d:b9:03:4b:02:a7:4d:db:8a:a8:bb:56:
         a5:df:8b:9b:91:dc:b9:64:d5:88:19:41:65:40:e3:b9:b6:7e:
         80:e6:43:0f:b9:4f:38:23:d5:5a:58:8a:c3:64:16:fa:17:c7:
         9d:62:ca:b0:0b:97:b0:64:2d:8d:8c:47:9c:96:4d:37:fd:57:
         d8:c9:02:53:f1:00:07:5b:99:a3:ba:9d:7a:09:fe:15:57:68:
         d8:4c:f1:6b:d8:ef:c1:a0:5a:34:19:61:57:3b:89:d9:fb:e8:
         0b:6d:25:a8:77:6d:f3:ab:36:f2:56:4d:36:54:b4:52:06:80:
         ed:41:f1:9e:95:12:1c:4f:0e:a8:48:fc:5b:54:73:18:89:a4:
         83:7d:3d:63:29:11:c1:cf:91:83:dc:20:a4:12:57:81:f1:7a:
         29:be:a7:fb:6a:9f:77:a5:17:3a:1a:72:90:04:89:0e:a9:d1:
         a0:50:28:08:03:16:83:03:13:a2:d5:b8:4a:cf:43:d3:48:c4:
         71:95:f1:20
-----BEGIN CERTIFICATE-----
MIIEyTCCA7GgAwIBAgIBCjANBgkqhkiG9w0BAQUFADCBozELMAkGA1UEBhMCVVMx
EzARBgNVBAgMCkNhbGlmb3JuaWExFjAUBgNVBAcMDVNhbiBGcmFuY2lzY28xKjAo
BgNVBAoMIUNhc3VhbCBDb2xsZWN0aXZlIEluYy4gZGJhIEtpeGV5ZTEXMBUGA1UE
AwwOS2l4ZXllIFJvb3QgQ0ExIjAgBgkqhkiG9w0BCQEWE3N5c2FkbWluQGtpeGV5
ZS5jb20wHhcNMTMwMTE4MjIxMjE3WhcNMjMwMTE2MjIxMjE3WjBtMQswCQYDVQQG
EwJVUzETMBEGA1UECAwKQ2FsaWZvcm5pYTEqMCgGA1UECgwhQ2FzdWFsIENvbGxl
Y3RpdmUgSW5jLiBkYmEgS2l4ZXllMR0wGwYDVQQDDBQqLnN0YWdlLmkua2l4ZXll
LmNvbTCCASIwDQYJKoZIhvcNAQEBBQADggEPADCCAQoCggEBALp6O+CwBiKtJpOI
uevvObxRrE1kI5CmeyLlshlAbqL91nqT/ZXl4tbXpR3xTNjql9Q4uMqGyumJYJAS
4xtxMSxx3bOzFpAjtN0GnESZNNGjCptxuqXGg5L84lNHwxYmoCQgmtxAHLXuEe0A
9aqZdUIlS6DJPFYIoI1659DtP0uiwmFiKDc5Xwgu0jfCEHIo7pnnboxQI5z52B3a
1zdnnP6zBBBVxLNDQT1BxDzQTLKSSL2HWFWiOKCDj+/y/FUjdn51pkmBVrGnOlHl
pGhNSGXF7GzLmtA75VdwTbDDRB1OdLsMdA8nfOgNhZzlzAiH4sC+y7VapPSt9DyL
ld64TE8CAwEAAaOCATswggE3MAkGA1UdEwQCMAAwHQYDVR0OBBYEFDixP99j1zpU
lCDl0SD3giMU8F6tMIHYBgNVHSMEgdAwgc2AFJCNxCT0nHKwjIabhaWlVVuTCRRu
oYGppIGmMIGjMQswCQYDVQQGEwJVUzETMBEGA1UECAwKQ2FsaWZvcm5pYTEWMBQG
A1UEBwwNU2FuIEZyYW5jaXNjbzEqMCgGA1UECgwhQ2FzdWFsIENvbGxlY3RpdmUg
SW5jLiBkYmEgS2l4ZXllMRcwFQYDVQQDDA5LaXhleWUgUm9vdCBDQTEiMCAGCSqG
SIb3DQEJARYTc3lzYWRtaW5Aa2l4ZXllLmNvbYIJAN6DXGPqFen3MDAGCWCGSAGG
+EIBBAQjFiFodHRwczovL2tpeGV5ZS5jb20vc3NsL3Jldm9rZS5wZW0wDQYJKoZI
hvcNAQEFBQADggEBAIoiiIdpcdAlKMYpMg/oMY89lJOYFyWCBQxXbzzkEGqaQG7r
YL7A8yYqb9iTudNLqQcBpMHQvohzu1gGHn25A0sCp03biqi7VqXfi5uR3Llk1YgZ
QWVA47m2foDmQw+5Tzgj1VpYisNkFvoXx51iyrALl7BkLY2MR5yWTTf9V9jJAlPx
AAdbmaO6nXoJ/hVXaNhM8WvY78GgWjQZYVc7idn76AttJah3bfOrNvJWTTZUtFIG
gO1B8Z6VEhxPDqhI/FtUcxiJpIN9PWMpEcHPkYPcIKQSV4Hxeim+p/tqn3elFzoa
cpAEiQ6p0aBQKAgDFoMDE6LVuErPQ9NIxHGV8SA=
-----END CERTIFICATE-----
