-----BEGIN PRIVATE KEY-----
MIIEvQIBADANBgkqhkiG9w0BAQEFAASCBKcwggSjAgEAAoIBAQDUiPo/6sqqxNrg
QSH4BbgzrsbqRcAVeS1ZK6/jFKNltIPsCmsIpsmZyfzgAg6ARqWMHi2jnPoIj/mn
uMBHajXhhm3u/u6QJC1+dIqacuGHA0jaTkIliU7/hswx+YiovGYQXaaP26de+0bT
O8xUAEjs6D3sle4zp37Z8ZrqEnQYgc/KgmzEjJQAGnjAKi0PAGkj6uuv+tk62Jfp
+Bu0JeVdq+XTZK0e1lS9gJxwikAetm9v7HyyeTM6vXBQRYICrmCd9Xze+4ogn7Bw
JKnQzegtB86cFb/vAxJO4L9crg+26ju8AUpfVCvBwW+ao6cM17tl9nwDH3e54j61
HK/jwENhAgMBAAECggEAGTX+aWKSk9syE3PmcaNMDGVpFxUbCfEL3g3+mTMzhrb5
ByDdPXN7apC5PGFCExlOPea+hy/xwN5DQQ/7Tv1cUto9ZCI9bj+8Xcm5P0TtV7Se
CbdKxWUaR9lXk34EJe/jM4HIZjwqCGxKJHhtbnFyNRf/cHcAgIQX2gZ819NEjjtw
Nl2CdrEm7ZybO5ZlgyHmAaNf7r31jRA6Qid1uGtK/fNnOJUYS5LZHLJy3pSuiNeN
DfU5828HH3U4Yzhc6jyN2fu8dzsySiln/rndBAVpjadLLPVUHUxAan3j3zuvA5Vn
zW38bmiF4UGtPjc8ZjBb8aPe8danvapdoucIF6C5oQKBgQD/orKsh55WIw13lgN0
tjihxWYpUv2DRGEgMBmuc0ROHvBAxwIN/CqOmG4D6OLil/yUZD8WBn9n/EUzBBp3
GW8GuV1wMSPzj7/BRRAc8JcSz3tTXynqVOK/PJMq1JsgoAw8HNAC1cy1UYVsM+np
/0eXHRORw1TEB/s90i7HtqM3XQKBgQDU1ox64VTMjuO/fstV1by+GR83ZMPDlkBu
OsRqfcTUQb/jFumbW/91z1Yu2wxK+CKTzPgGKhEGPTUAOvQtI40yB5RYt1ZR1CDe
GyWNAuia6Xl8eySSI+T+Wa+RmMBWL2tbAkD1dkQ1o43taEpZGHiPLSpJ42cRmf3Q
b+ovnPvP1QKBgCY85PMPuixyQ9JuewfbNe9kwppN0qPu94REDaNdlIsG77MQ0Yrb
/FWmEVa+YCm6yEo+EH2v7SDVyFgQNhE4mbXsxkBA6XrGNs2nEfjyN/bVWEIpSvDF
T8GBQxY2BRpFNm9LdAXoix1YG1gLD+MzjzbYX5P/Hs/PzdH6fYrcE9/1AoGAedIf
cAnfJoI2uxmQup1uvYPViTgkkKNEV5NNbwJzkWXctdcceK7shfrZglIgNBzYda5g
2+5h9ic8WdhkgB2UKGmMMEcnogh/k4EIOjDLADfYMDavlPH0lNyyj+xVUj8r/FhK
4/QAUI8/of4KZ/qIrrKUPNxq1vlD/HTCHuSEgM0CgYEA5WjUoLYPcdCaEOeFORLn
W+M9AOgaBKYPngldXMp23ColBZrF0lkeUxDBShj5hdnluriFct8ElRcwjWYWABRs
IVSXGEMJbH4G5/qJI1b3fwPO7FQure3lINUzLZjN7lthRaKbLXak9TpSnEi92Tng
W3naR5VaQ684veDEGQu7A58=
-----END PRIVATE KEY-----
Certificate:
    Data:
        Version: 3 (0x2)
        Serial Number: 11 (0xb)
    Signature Algorithm: sha1WithRSAEncryption
        Issuer: C=US, ST=California, L=San Francisco, O=Casual Collective Inc. dba Kixeye, CN=Kixeye Root CA/emailAddress=sysadmin@kixeye.com
        Validity
            Not Before: Jan 18 22:12:17 2013 GMT
            Not After : Jan 16 22:12:17 2023 GMT
        Subject: C=US, ST=California, O=Casual Collective Inc. dba Kixeye, CN=*.test.i.kixeye.com
        Subject Public Key Info:
            Public Key Algorithm: rsaEncryption
                Public-Key: (2048 bit)
                Modulus:
                    00:d4:88:fa:3f:ea:ca:aa:c4:da:e0:41:21:f8:05:
                    b8:33:ae:c6:ea:45:c0:15:79:2d:59:2b:af:e3:14:
                    a3:65:b4:83:ec:0a:6b:08:a6:c9:99:c9:fc:e0:02:
                    0e:80:46:a5:8c:1e:2d:a3:9c:fa:08:8f:f9:a7:b8:
                    c0:47:6a:35:e1:86:6d:ee:fe:ee:90:24:2d:7e:74:
                    8a:9a:72:e1:87:03:48:da:4e:42:25:89:4e:ff:86:
                    cc:31:f9:88:a8:bc:66:10:5d:a6:8f:db:a7:5e:fb:
                    46:d3:3b:cc:54:00:48:ec:e8:3d:ec:95:ee:33:a7:
                    7e:d9:f1:9a:ea:12:74:18:81:cf:ca:82:6c:c4:8c:
                    94:00:1a:78:c0:2a:2d:0f:00:69:23:ea:eb:af:fa:
                    d9:3a:d8:97:e9:f8:1b:b4:25:e5:5d:ab:e5:d3:64:
                    ad:1e:d6:54:bd:80:9c:70:8a:40:1e:b6:6f:6f:ec:
                    7c:b2:79:33:3a:bd:70:50:45:82:02:ae:60:9d:f5:
                    7c:de:fb:8a:20:9f:b0:70:24:a9:d0:cd:e8:2d:07:
                    ce:9c:15:bf:ef:03:12:4e:e0:bf:5c:ae:0f:b6:ea:
                    3b:bc:01:4a:5f:54:2b:c1:c1:6f:9a:a3:a7:0c:d7:
                    bb:65:f6:7c:03:1f:77:b9:e2:3e:b5:1c:af:e3:c0:
                    43:61
                Exponent: 65537 (0x10001)
        X509v3 extensions:
            X509v3 Basic Constraints: 
                CA:FALSE
            X509v3 Subject Key Identifier: 
                80:73:A4:A8:D0:F3:2E:F9:F4:2F:30:88:1A:2A:A5:89:01:67:06:B1
            X509v3 Authority Key Identifier: 
                keyid:90:8D:C4:24:F4:9C:72:B0:8C:86:9B:85:A5:A5:55:5B:93:09:14:6E
                DirName:/C=US/ST=California/L=San Francisco/O=Casual Collective Inc. dba Kixeye/CN=Kixeye Root CA/emailAddress=sysadmin@kixeye.com
                serial:DE:83:5C:63:EA:15:E9:F7

            Netscape CA Revocation Url: 
                https://kixeye.com/ssl/revoke.pem
    Signature Algorithm: sha1WithRSAEncryption
         0b:13:5b:d5:f4:cb:c8:31:31:77:30:9a:b8:37:67:a9:e5:bb:
         6b:3e:b6:f2:13:0a:f7:5b:dd:60:3d:c6:bf:bc:5b:64:58:3c:
         13:7b:f6:da:12:a7:a7:8c:b9:2c:b0:03:18:4f:20:e2:cd:75:
         05:b3:9a:d1:8e:e9:9c:56:fd:21:dd:a4:02:21:90:97:55:f6:
         5a:cd:ba:b6:fe:f9:cf:4d:b7:b1:30:30:5f:8c:ca:47:24:03:
         41:db:6f:f0:cc:06:50:d0:36:83:49:0d:84:eb:29:b1:25:89:
         32:e8:78:fe:5c:a8:98:cb:d9:92:e4:98:86:77:64:0c:a5:7c:
         6e:6c:34:70:13:66:08:d5:d1:ed:5c:be:a9:12:33:8e:f1:6d:
         85:c0:a4:5e:9f:88:78:ec:70:9f:e6:80:53:e3:85:d3:ac:84:
         af:12:1c:0a:c4:46:2a:b1:9a:25:90:5d:ac:05:02:89:3d:ac:
         2b:af:f5:2f:a3:a7:4a:6d:23:15:4a:4a:6d:3f:bd:f9:58:47:
         02:e0:5f:ab:f7:92:a0:24:1b:dd:ce:53:56:1d:f2:bc:7b:b6:
         3d:9c:e5:2d:bd:e5:a8:12:fb:8a:50:cf:bb:cc:bc:52:a2:ee:
         03:20:8f:0b:b4:0a:9e:c4:f8:a6:c0:aa:93:2a:ae:64:d9:db:
         8e:e4:d0:26
-----BEGIN CERTIFICATE-----
MIIEyDCCA7CgAwIBAgIBCzANBgkqhkiG9w0BAQUFADCBozELMAkGA1UEBhMCVVMx
EzARBgNVBAgMCkNhbGlmb3JuaWExFjAUBgNVBAcMDVNhbiBGcmFuY2lzY28xKjAo
BgNVBAoMIUNhc3VhbCBDb2xsZWN0aXZlIEluYy4gZGJhIEtpeGV5ZTEXMBUGA1UE
AwwOS2l4ZXllIFJvb3QgQ0ExIjAgBgkqhkiG9w0BCQEWE3N5c2FkbWluQGtpeGV5
ZS5jb20wHhcNMTMwMTE4MjIxMjE3WhcNMjMwMTE2MjIxMjE3WjBsMQswCQYDVQQG
EwJVUzETMBEGA1UECAwKQ2FsaWZvcm5pYTEqMCgGA1UECgwhQ2FzdWFsIENvbGxl
Y3RpdmUgSW5jLiBkYmEgS2l4ZXllMRwwGgYDVQQDDBMqLnRlc3QuaS5raXhleWUu
Y29tMIIBIjANBgkqhkiG9w0BAQEFAAOCAQ8AMIIBCgKCAQEA1Ij6P+rKqsTa4EEh
+AW4M67G6kXAFXktWSuv4xSjZbSD7AprCKbJmcn84AIOgEaljB4to5z6CI/5p7jA
R2o14YZt7v7ukCQtfnSKmnLhhwNI2k5CJYlO/4bMMfmIqLxmEF2mj9unXvtG0zvM
VABI7Og97JXuM6d+2fGa6hJ0GIHPyoJsxIyUABp4wCotDwBpI+rrr/rZOtiX6fgb
tCXlXavl02StHtZUvYCccIpAHrZvb+x8snkzOr1wUEWCAq5gnfV83vuKIJ+wcCSp
0M3oLQfOnBW/7wMSTuC/XK4Ptuo7vAFKX1QrwcFvmqOnDNe7ZfZ8Ax93ueI+tRyv
48BDYQIDAQABo4IBOzCCATcwCQYDVR0TBAIwADAdBgNVHQ4EFgQUgHOkqNDzLvn0
LzCIGiqliQFnBrEwgdgGA1UdIwSB0DCBzYAUkI3EJPSccrCMhpuFpaVVW5MJFG6h
gamkgaYwgaMxCzAJBgNVBAYTAlVTMRMwEQYDVQQIDApDYWxpZm9ybmlhMRYwFAYD
VQQHDA1TYW4gRnJhbmNpc2NvMSowKAYDVQQKDCFDYXN1YWwgQ29sbGVjdGl2ZSBJ
bmMuIGRiYSBLaXhleWUxFzAVBgNVBAMMDktpeGV5ZSBSb290IENBMSIwIAYJKoZI
hvcNAQkBFhNzeXNhZG1pbkBraXhleWUuY29tggkA3oNcY+oV6fcwMAYJYIZIAYb4
QgEEBCMWIWh0dHBzOi8va2l4ZXllLmNvbS9zc2wvcmV2b2tlLnBlbTANBgkqhkiG
9w0BAQUFAAOCAQEACxNb1fTLyDExdzCauDdnqeW7az628hMK91vdYD3Gv7xbZFg8
E3v22hKnp4y5LLADGE8g4s11BbOa0Y7pnFb9Id2kAiGQl1X2Ws26tv75z023sTAw
X4zKRyQDQdtv8MwGUNA2g0kNhOspsSWJMuh4/lyomMvZkuSYhndkDKV8bmw0cBNm
CNXR7Vy+qRIzjvFthcCkXp+IeOxwn+aAU+OF06yErxIcCsRGKrGaJZBdrAUCiT2s
K6/1L6OnSm0jFUpKbT+9+VhHAuBfq/eSoCQb3c5TVh3yvHu2PZzlLb3lqBL7ilDP
u8y8UqLuAyCPC7QKnsT4psCqkyquZNnbjuTQJg==
-----END CERTIFICATE-----
